target datalayout = "e-m:e-p270:32:32-p271:32:32-p272:64:64-i64:64-i128:128-f80:128-n8:16:32:64-S128"
target triple = "x86_64-pc-linux-gnu"

%struct.AVFilterContext = type { ptr, ptr, ptr, ptr, ptr, i32, ptr, ptr, i32, ptr, ptr, i32, i32, ptr, ptr, ptr, ptr, i32, ptr, i32, i32 }
%struct.ASoftClipContext = type { ptr, i32, i32, i64, double, double, double, [64 x %struct.Lowpass], [2 x ptr], ptr }
%struct.Lowpass = type { float, float, float, float, float, float, double, double, double, double, double, double }
%struct.ThreadData = type { ptr, ptr, i32, i32 }
%struct.AVFilterLink = type { ptr, ptr, ptr, ptr, i32, i32, i32, i32, %struct.AVRational, i32, i32, i32, %struct.AVChannelLayout, %struct.AVRational, ptr, i32, %struct.AVFilterFormatsConfig, %struct.AVFilterFormatsConfig }
%struct.AVChannelLayout = type { i32, i32, %union.anon.1, ptr }
%union.anon.1 = type { i64 }
%struct.AVRational = type { i32, i32 }
%struct.AVFilterFormatsConfig = type { ptr, ptr, ptr, ptr, ptr }
%struct.AVFrame = type { [8 x ptr], [8 x i32], ptr, i32, i32, i32, i32, i32, %struct.AVRational, i64, i64, %struct.AVRational, i32, ptr, i32, i32, [8 x ptr], ptr, i32, ptr, i32, i32, i32, i32, i32, i32, i32, i64, ptr, i32, ptr, ptr, i64, i64, i64, i64, ptr, %struct.AVChannelLayout, i64 }

; Function Attrs: nounwind uwtable
define internal i32 @filter_frame(ptr noundef %0, ptr noundef %1) #2 {
  %3 = alloca i32, align 4
  %4 = alloca ptr, align 8
  %5 = alloca ptr, align 8
  %6 = alloca ptr, align 8
  %7 = alloca ptr, align 8
  %8 = alloca ptr, align 8
  %9 = alloca i32, align 4
  %10 = alloca i32, align 4
  %11 = alloca %struct.ThreadData, align 8
  %12 = alloca ptr, align 8
  %13 = alloca i32, align 4
  store ptr %0, ptr %4, align 8, !tbaa !24
  store ptr %1, ptr %5, align 8, !tbaa !26
  call void @llvm.lifetime.start.p0(i64 8, ptr %6) #10
  %14 = load ptr, ptr %4, align 8, !tbaa !24
  %15 = getelementptr inbounds nuw %struct.AVFilterLink, ptr %14, i32 0, i32 2
  %16 = load ptr, ptr %15, align 8, !tbaa !28
  store ptr %16, ptr %6, align 8, !tbaa !4
  call void @llvm.lifetime.start.p0(i64 8, ptr %7) #10
  %17 = load ptr, ptr %6, align 8, !tbaa !4
  %18 = getelementptr inbounds nuw %struct.AVFilterContext, ptr %17, i32 0, i32 9
  %19 = load ptr, ptr %18, align 8, !tbaa !9
  store ptr %19, ptr %7, align 8, !tbaa !22
  call void @llvm.lifetime.start.p0(i64 8, ptr %8) #10
  %20 = load ptr, ptr %6, align 8, !tbaa !4
  %21 = getelementptr inbounds nuw %struct.AVFilterContext, ptr %20, i32 0, i32 7
  %22 = load ptr, ptr %21, align 8, !tbaa !36
  %23 = getelementptr inbounds ptr, ptr %22, i64 0
  %24 = load ptr, ptr %23, align 8, !tbaa !24
  store ptr %24, ptr %8, align 8, !tbaa !24
  call void @llvm.lifetime.start.p0(i64 4, ptr %9) #10
  call void @llvm.lifetime.start.p0(i64 4, ptr %10) #10
  call void @llvm.lifetime.start.p0(i64 24, ptr %11) #10
  call void @llvm.lifetime.start.p0(i64 8, ptr %12) #10
  %25 = load ptr, ptr %5, align 8, !tbaa !26
  %26 = call i32 @av_frame_is_writable(ptr noundef %25)
  %27 = icmp ne i32 %26, 0
  br i1 %27, label %28, label %35

28:                                               ; preds = %2
  %29 = load ptr, ptr %7, align 8, !tbaa !22
  %30 = getelementptr inbounds nuw %struct.ASoftClipContext, ptr %29, i32 0, i32 2
  %31 = load i32, ptr %30, align 4, !tbaa !37
  %32 = icmp eq i32 %31, 1
  br i1 %32, label %33, label %35

33:                                               ; preds = %28
  %34 = load ptr, ptr %5, align 8, !tbaa !26
  store ptr %34, ptr %12, align 8, !tbaa !26
  br label %52

35:                                               ; preds = %28, %2
  %36 = load ptr, ptr %8, align 8, !tbaa !24
  %37 = load ptr, ptr %5, align 8, !tbaa !26
  %38 = getelementptr inbounds nuw %struct.AVFrame, ptr %37, i32 0, i32 5
  %39 = load i32, ptr %38, align 8, !tbaa !41
  %40 = load ptr, ptr %7, align 8, !tbaa !22
  %41 = getelementptr inbounds nuw %struct.ASoftClipContext, ptr %40, i32 0, i32 2
  %42 = load i32, ptr %41, align 4, !tbaa !37
  %43 = mul nsw i32 %39, %42
  %44 = call ptr @ff_get_audio_buffer(ptr noundef %36, i32 noundef %43)
  store ptr %44, ptr %12, align 8, !tbaa !26
  %45 = load ptr, ptr %12, align 8, !tbaa !26
  %46 = icmp ne ptr %45, null
  br i1 %46, label %48, label %47

47:                                               ; preds = %35
  call void @av_frame_free(ptr noundef %5)
  store i32 -12, ptr %3, align 4
  store i32 1, ptr %13, align 4
  br label %96

48:                                               ; preds = %35
  %49 = load ptr, ptr %12, align 8, !tbaa !26
  %50 = load ptr, ptr %5, align 8, !tbaa !26
  %51 = call i32 @av_frame_copy_props(ptr noundef %49, ptr noundef %50)
  br label %52

52:                                               ; preds = %48, %33
  %53 = load ptr, ptr %5, align 8, !tbaa !26
  %54 = getelementptr inbounds nuw %struct.AVFrame, ptr %53, i32 0, i32 5
  %55 = load i32, ptr %54, align 8, !tbaa !41
  store i32 %55, ptr %9, align 4, !tbaa !46
  %56 = load ptr, ptr %5, align 8, !tbaa !26
  %57 = getelementptr inbounds nuw %struct.AVFrame, ptr %56, i32 0, i32 37
  %58 = getelementptr inbounds nuw %struct.AVChannelLayout, ptr %57, i32 0, i32 1
  %59 = load i32, ptr %58, align 4, !tbaa !47
  store i32 %59, ptr %10, align 4, !tbaa !46
  %60 = load ptr, ptr %5, align 8, !tbaa !26
  %61 = getelementptr inbounds nuw %struct.ThreadData, ptr %11, i32 0, i32 0
  store ptr %60, ptr %61, align 8, !tbaa !48
  %62 = load ptr, ptr %12, align 8, !tbaa !26
  %63 = getelementptr inbounds nuw %struct.ThreadData, ptr %11, i32 0, i32 1
  store ptr %62, ptr %63, align 8, !tbaa !50
  %64 = load i32, ptr %9, align 4, !tbaa !46
  %65 = getelementptr inbounds nuw %struct.ThreadData, ptr %11, i32 0, i32 2
  store i32 %64, ptr %65, align 8, !tbaa !51
  %66 = load i32, ptr %10, align 4, !tbaa !46
  %67 = getelementptr inbounds nuw %struct.ThreadData, ptr %11, i32 0, i32 3
  store i32 %66, ptr %67, align 4, !tbaa !52
  %68 = load ptr, ptr %6, align 8, !tbaa !4
  %69 = load i32, ptr %10, align 4, !tbaa !46
  %70 = load ptr, ptr %6, align 8, !tbaa !4
  %71 = call i32 @ff_filter_get_nb_threads(ptr noundef %70) #11
  %72 = icmp sgt i32 %69, %71
  br i1 %72, label %73, label %76

73:                                               ; preds = %52
  %74 = load ptr, ptr %6, align 8, !tbaa !4
  %75 = call i32 @ff_filter_get_nb_threads(ptr noundef %74) #11
  br label %78

76:                                               ; preds = %52
  %77 = load i32, ptr %10, align 4, !tbaa !46
  br label %78

78:                                               ; preds = %76, %73
  %79 = phi i32 [ %75, %73 ], [ %77, %76 ]
  %80 = call i32 @ff_filter_execute(ptr noundef %68, ptr noundef @filter_channels, ptr noundef %11, ptr noundef null, i32 noundef %79)
  %81 = load ptr, ptr %12, align 8, !tbaa !26
  %82 = load ptr, ptr %5, align 8, !tbaa !26
  %83 = icmp ne ptr %81, %82
  br i1 %83, label %84, label %85

84:                                               ; preds = %78
  call void @av_frame_free(ptr noundef %5)
  br label %85

85:                                               ; preds = %84, %78
  %86 = load ptr, ptr %7, align 8, !tbaa !22
  %87 = getelementptr inbounds nuw %struct.ASoftClipContext, ptr %86, i32 0, i32 2
  %88 = load i32, ptr %87, align 4, !tbaa !37
  %89 = load ptr, ptr %12, align 8, !tbaa !26
  %90 = getelementptr inbounds nuw %struct.AVFrame, ptr %89, i32 0, i32 5
  %91 = load i32, ptr %90, align 8, !tbaa !41
  %92 = sdiv i32 %91, %88
  store i32 %92, ptr %90, align 8, !tbaa !41
  %93 = load ptr, ptr %8, align 8, !tbaa !24
  %94 = load ptr, ptr %12, align 8, !tbaa !26
  %95 = call i32 @ff_filter_frame(ptr noundef %93, ptr noundef %94)
  store i32 %95, ptr %3, align 4
  store i32 1, ptr %13, align 4
  br label %96

96:                                               ; preds = %85, %47
  call void @llvm.lifetime.end.p0(i64 8, ptr %12) #10
  call void @llvm.lifetime.end.p0(i64 24, ptr %11) #10
  call void @llvm.lifetime.end.p0(i64 4, ptr %10) #10
  call void @llvm.lifetime.end.p0(i64 4, ptr %9) #10
  call void @llvm.lifetime.end.p0(i64 8, ptr %8) #10
  call void @llvm.lifetime.end.p0(i64 8, ptr %7) #10
  call void @llvm.lifetime.end.p0(i64 8, ptr %6) #10
  %97 = load i32, ptr %3, align 4
  ret i32 %97
}