; Function Attrs: nounwind uwtable
define internal i32 @filter_frame(ptr noundef readonly captures(none) %0, ptr noundef %1) #2 {
  %3 = alloca ptr, align 8
  %4 = alloca %struct.ThreadData, align 8
  store ptr %1, ptr %3, align 8, !tbaa !20
  %5 = getelementptr inbounds nuw i8, ptr %0, i64 16
  %6 = load ptr, ptr %5, align 8, !tbaa !22
  %7 = getelementptr inbounds nuw i8, ptr %6, i64 72
  %8 = load ptr, ptr %7, align 8, !tbaa !4
  %9 = getelementptr inbounds nuw i8, ptr %6, i64 56
  %10 = load ptr, ptr %9, align 8, !tbaa !31
  %11 = load ptr, ptr %10, align 8, !tbaa !32
  call void @llvm.lifetime.start.p0(i64 24, ptr nonnull %4) #10
  %12 = tail call i32 @av_frame_is_writable(ptr noundef %1) #10
  %.not = icmp ne i32 %12, 0
  %.phi.trans.insert = getelementptr inbounds nuw i8, ptr %8, i64 12
  %.pre = load i32, ptr %.phi.trans.insert, align 4, !tbaa !34
  %13 = icmp eq i32 %.pre, 1
  %or.cond = select i1 %.not, i1 %13, i1 false
  br i1 %or.cond, label %21, label %._crit_edge

._crit_edge:                                      ; preds = %2
  %14 = getelementptr inbounds nuw i8, ptr %1, i64 112
  %15 = load i32, ptr %14, align 8, !tbaa !38
  %16 = mul nsw i32 %.pre, %15
  %17 = tail call ptr @ff_get_audio_buffer(ptr noundef %11, i32 noundef %16) #10
  %.not25 = icmp eq ptr %17, null
  br i1 %.not25, label %18, label %19

18:                                               ; preds = %._crit_edge
  call void @av_frame_free(ptr noundef nonnull %3) #10
  br label %40

19:                                               ; preds = %._crit_edge
  %20 = tail call i32 @av_frame_copy_props(ptr noundef nonnull %17, ptr noundef nonnull %1) #10
  br label %21

21:                                               ; preds = %2, %19
  %.0 = phi ptr [ %17, %19 ], [ %1, %2 ]
  %22 = getelementptr inbounds nuw i8, ptr %1, i64 112
  %23 = load i32, ptr %22, align 8, !tbaa !38
  %24 = getelementptr inbounds nuw i8, ptr %1, i64 388
  %25 = load i32, ptr %24, align 4, !tbaa !43
  store ptr %1, ptr %4, align 8, !tbaa !44
  %26 = getelementptr inbounds nuw i8, ptr %4, i64 8
  store ptr %.0, ptr %26, align 8, !tbaa !46
  %27 = getelementptr inbounds nuw i8, ptr %4, i64 16
  store i32 %23, ptr %27, align 8, !tbaa !47
  %28 = getelementptr inbounds nuw i8, ptr %4, i64 20
  store i32 %25, ptr %28, align 4, !tbaa !48
  %29 = tail call i32 @ff_filter_get_nb_threads(ptr noundef nonnull %6) #11
  %. = tail call i32 @llvm.smin.i32(i32 %25, i32 %29)
  %30 = call i32 @ff_filter_execute(ptr noundef nonnull %6, ptr noundef nonnull @filter_channels, ptr noundef nonnull %4, ptr noundef null, i32 noundef %.) #10
  %31 = load ptr, ptr %3, align 8, !tbaa !20
  %.not26 = icmp eq ptr %.0, %31
  br i1 %.not26, label %33, label %32

32:                                               ; preds = %21
  call void @av_frame_free(ptr noundef nonnull %3) #10
  br label %33

33:                                               ; preds = %32, %21
  %34 = getelementptr inbounds nuw i8, ptr %8, i64 12
  %35 = load i32, ptr %34, align 4, !tbaa !34
  %36 = getelementptr inbounds nuw i8, ptr %.0, i64 112
  %37 = load i32, ptr %36, align 8, !tbaa !38
  %38 = sdiv i32 %37, %35
  store i32 %38, ptr %36, align 8, !tbaa !38
  %39 = call i32 @ff_filter_frame(ptr noundef %11, ptr noundef %.0) #10
  br label %40

40:                                               ; preds = %33, %18
  %.021 = phi i32 [ %39, %33 ], [ -12, %18 ]
  call void @llvm.lifetime.end.p0(i64 24, ptr nonnull %4) #10
  ret i32 %.021
}